; ModuleID = 'source-C-CXX/4/61.c'
source_filename = "source-C-CXX/4/61.c"
target datalayout = "e-m:e-p270:32:32-p271:32:32-p272:64:64-i64:64-f80:128-n8:16:32:64-S128"
target triple = "x86_64-pc-linux-gnu"

@.str = private unnamed_addr constant [4 x i8] c"%lf\00", align 1
@.str.1 = private unnamed_addr constant [6 x i8] c"error\00", align 1
@.str.2 = private unnamed_addr constant [4 x i8] c"yes\00", align 1
@.str.3 = private unnamed_addr constant [3 x i8] c"no\00", align 1

; Function Attrs: nounwind sspstrong uwtable
define dso_local void @main() local_unnamed_addr #0 {
  %1 = alloca [500 x i8], align 16
  %2 = alloca [500 x i8], align 16
  %3 = alloca [10 x i8], align 1
  %4 = alloca double, align 8
  %5 = getelementptr inbounds [500 x i8], [500 x i8]* %1, i64 0, i64 0
  call void @llvm.lifetime.start.p0i8(i64 500, i8* nonnull %5) #4
  %6 = getelementptr inbounds [500 x i8], [500 x i8]* %2, i64 0, i64 0
  call void @llvm.lifetime.start.p0i8(i64 500, i8* nonnull %6) #4
  %7 = getelementptr inbounds [10 x i8], [10 x i8]* %3, i64 0, i64 0
  call void @llvm.lifetime.start.p0i8(i64 10, i8* nonnull %7) #4
  %8 = bitcast double* %4 to i8*
  call void @llvm.lifetime.start.p0i8(i64 8, i8* nonnull %8) #4
  %9 = call i32 (i8*, ...) @__isoc99_scanf(i8* getelementptr inbounds ([4 x i8], [4 x i8]* @.str, i64 0, i64 0), double* nonnull %4)
  %10 = call i32 (i8*, ...) bitcast (i32 (...)* @gets to i32 (i8*, ...)*)(i8* nonnull %7) #4
  %11 = call i32 (i8*, ...) bitcast (i32 (...)* @gets to i32 (i8*, ...)*)(i8* nonnull %5) #4
  %12 = call i32 (i8*, ...) bitcast (i32 (...)* @gets to i32 (i8*, ...)*)(i8* nonnull %6) #4
  br label %13

13:                                               ; preds = %21, %0
  %14 = phi i64 [ %25, %21 ], [ 0, %0 ]
  %15 = phi i32 [ %24, %21 ], [ 0, %0 ]
  %16 = getelementptr inbounds [500 x i8], [500 x i8]* %1, i64 0, i64 %14
  %17 = load i8, i8* %16, align 1, !tbaa !5
  switch i8 %17, label %39 [
    i8 0, label %26
    i8 65, label %18
    i8 71, label %18
    i8 67, label %18
    i8 84, label %18
  ]

18:                                               ; preds = %13, %13, %13, %13
  %19 = getelementptr inbounds [500 x i8], [500 x i8]* %2, i64 0, i64 %14
  %20 = load i8, i8* %19, align 1, !tbaa !5
  switch i8 %20, label %39 [
    i8 65, label %21
    i8 71, label %21
    i8 67, label %21
    i8 84, label %21
  ]

21:                                               ; preds = %18, %18, %18, %18
  %22 = icmp eq i8 %17, %20
  %23 = zext i1 %22 to i32
  %24 = add nuw nsw i32 %15, %23
  %25 = add nuw i64 %14, 1
  br label %13, !llvm.loop !8

26:                                               ; preds = %13
  %27 = and i64 %14, 4294967295
  %28 = getelementptr inbounds [500 x i8], [500 x i8]* %2, i64 0, i64 %27
  %29 = load i8, i8* %28, align 1, !tbaa !5
  %30 = icmp eq i8 %29, 0
  br i1 %30, label %31, label %39

31:                                               ; preds = %26
  %32 = trunc i64 %14 to i32
  %33 = sitofp i32 %15 to double
  %34 = sitofp i32 %32 to double
  %35 = fdiv double %33, %34
  %36 = load double, double* %4, align 8, !tbaa !10
  %37 = fcmp ogt double %35, %36
  %38 = select i1 %37, i8* getelementptr inbounds ([4 x i8], [4 x i8]* @.str.2, i64 0, i64 0), i8* getelementptr inbounds ([3 x i8], [3 x i8]* @.str.3, i64 0, i64 0)
  br label %39

39:                                               ; preds = %13, %18, %31, %26
  %40 = phi i8* [ getelementptr inbounds ([6 x i8], [6 x i8]* @.str.1, i64 0, i64 0), %26 ], [ %38, %31 ], [ getelementptr inbounds ([6 x i8], [6 x i8]* @.str.1, i64 0, i64 0), %18 ], [ getelementptr inbounds ([6 x i8], [6 x i8]* @.str.1, i64 0, i64 0), %13 ]
  %41 = call i32 (i8*, ...) @printf(i8* nonnull dereferenceable(1) %40)
  call void @llvm.lifetime.end.p0i8(i64 8, i8* nonnull %8) #4
  call void @llvm.lifetime.end.p0i8(i64 10, i8* nonnull %7) #4
  call void @llvm.lifetime.end.p0i8(i64 500, i8* nonnull %6) #4
  call void @llvm.lifetime.end.p0i8(i64 500, i8* nonnull %5) #4
  ret void
}

; Function Attrs: argmemonly mustprogress nofree nosync nounwind willreturn
declare void @llvm.lifetime.start.p0i8(i64 immarg, i8* nocapture) #1

; Function Attrs: nofree nounwind
declare noundef i32 @__isoc99_scanf(i8* nocapture noundef readonly, ...) local_unnamed_addr #2

declare i32 @gets(...) local_unnamed_addr #3

; Function Attrs: nofree nounwind
declare noundef i32 @printf(i8* nocapture noundef readonly, ...) local_unnamed_addr #2

; Function Attrs: argmemonly mustprogress nofree nosync nounwind willreturn
declare void @llvm.lifetime.end.p0i8(i64 immarg, i8* nocapture) #1


!llvm.module.flags = !{!0, !1, !2, !3}
!llvm.ident = !{!4}

!0 = !{i32 1, !"wchar_size", i32 4}
!1 = !{i32 7, !"PIC Level", i32 2}
!2 = !{i32 7, !"PIE Level", i32 2}
!3 = !{i32 7, !"uwtable", i32 1}
!4 = !{!"clang version 13.0.0"}
!5 = !{!6, !6, i64 0}
!6 = !{!"omnipotent char", !7, i64 0}
!7 = !{!"Simple C/C++ TBAA"}
!8 = distinct !{!8, !9}
!9 = !{!"llvm.loop.mustprogress"}
!10 = !{!11, !11, i64 0}
!11 = !{!"double", !6, i64 0}
